; Function Attrs: mustprogress nounwind uwtable
define noundef i64 @_ZNK18OpenImageIO_v2_6_09ImageSpec13channel_bytesEib(ptr noundef nonnull align 8 dereferenceable(160) %this, i32 noundef %chan, i1 noundef zeroext %native) local_unnamed_addr #3 align 2 {
entry:
  %nchannels = getelementptr inbounds i8, ptr %this, i64 60
  %0 = load i32, ptr %nchannels, align 4
  %cmp.not = icmp sgt i32 %0, %chan
  br i1 %cmp.not, label %if.end, label %return

if.end:                                           ; preds = %entry
  br i1 %native, label %lor.lhs.false, label %if.then2

lor.lhs.false:                                    ; preds = %if.end
  %channelformats = getelementptr inbounds i8, ptr %this, i64 72
  %1 = load ptr, ptr %channelformats, align 8
  %_M_finish.i.i = getelementptr inbounds i8, ptr %this, i64 80
  %2 = load ptr, ptr %_M_finish.i.i, align 8
  %cmp.i.i = icmp eq ptr %1, %2
  br i1 %cmp.i.i, label %if.then2, label %if.else

if.then2:                                         ; preds = %lor.lhs.false, %if.end
  %format = getelementptr inbounds i8, ptr %this, i64 64
  %arraylen.i = getelementptr inbounds i8, ptr %this, i64 68
  %3 = load i32, ptr %arraylen.i, align 4
  %narrow.i = tail call i32 @llvm.smax.i32(i32 %3, i32 1)
  %aggregate.i.i = getelementptr inbounds i8, ptr %this, i64 65
  br label %return.sink.split

if.else:                                          ; preds = %lor.lhs.false
  %conv = sext i32 %chan to i64
  %add.ptr.i = getelementptr inbounds %"struct.OpenImageIO_v2_6_0::TypeDesc", ptr %1, i64 %conv
  %arraylen.i2 = getelementptr inbounds i8, ptr %add.ptr.i, i64 4
  %4 = load i32, ptr %arraylen.i2, align 4
  %narrow.i3 = tail call i32 @llvm.smax.i32(i32 %4, i32 1)
  %aggregate.i.i5 = getelementptr inbounds i8, ptr %add.ptr.i, i64 1
  br label %return.sink.split

return.sink.split:                                ; preds = %if.then2, %if.else
  %aggregate.i.i5.sink = phi ptr [ %aggregate.i.i5, %if.else ], [ %aggregate.i.i, %if.then2 ]
  %add.ptr.i.sink = phi ptr [ %add.ptr.i, %if.else ], [ %format, %if.then2 ]
  %spec.select.i4.sink.in = phi i32 [ %narrow.i3, %if.else ], [ %narrow.i, %if.then2 ]
  %spec.select.i4.sink = zext nneg i32 %spec.select.i4.sink.in to i64
  %5 = load i8, ptr %aggregate.i.i5.sink, align 1
  %conv.i.i6 = zext i8 %5 to i64
  %call.i.i7 = tail call noundef i64 @_ZNK18OpenImageIO_v2_6_08TypeDesc8basesizeEv(ptr noundef nonnull align 4 dereferenceable(8) %add.ptr.i.sink) #28
  %mul.i.i8 = mul i64 %call.i.i7, %conv.i.i6
  %mul.i9 = mul i64 %mul.i.i8, %spec.select.i4.sink
  br label %return

return:                                           ; preds = %return.sink.split, %entry
  %retval.0 = phi i64 [ 0, %entry ], [ %mul.i9, %return.sink.split ]
  ret i64 %retval.0
}